target datalayout = "e-m:e-p270:32:32-p271:32:32-p272:64:64-i64:64-i128:128-f80:128-n8:16:32:64-S128"
target triple = "x86_64-pc-linux-gnu"

%struct.jv = type { i8, i8, i16, i32, %union.anon }
%union.anon = type { ptr }
%struct.jq_util_input_state = type { ptr, ptr, ptr, ptr, ptr, i32, i32, i32, %struct.jv, [4096 x i8], i64, %struct.jv, i64 }

@.str.9 = private unnamed_addr constant [26 x i8] c"Unknown input line number\00", align 1

; Function Attrs: nounwind uwtable
define dso_local { i64, ptr } @jq_util_input_get_current_line(ptr noundef %0) #0 {
  %2 = alloca %struct.jv, align 8
  %3 = alloca ptr, align 8
  %4 = alloca ptr, align 8
  %5 = alloca ptr, align 8
  %6 = alloca %struct.jv, align 8
  %7 = alloca i32, align 4
  %8 = alloca ptr, align 8
  store ptr %0, ptr %3, align 8, !tbaa !37
  call void @llvm.lifetime.start.p0(i64 8, ptr %4) #8
  store ptr null, ptr %4, align 8, !tbaa !15
  call void @llvm.lifetime.start.p0(i64 8, ptr %5) #8
  store ptr null, ptr %5, align 8, !tbaa !15
  %9 = load ptr, ptr %3, align 8, !tbaa !37
  call void @jq_get_input_cb(ptr noundef %9, ptr noundef %4, ptr noundef %5)
  %10 = load ptr, ptr %4, align 8, !tbaa !15
  %11 = icmp ne ptr %10, @jq_util_input_next_input_cb
  br i1 %11, label %12, label %27

12:                                               ; preds = %1
  %13 = call { i64, ptr } @jv_string(ptr noundef @.str.9)
  %14 = getelementptr inbounds nuw { i64, ptr }, ptr %6, i32 0, i32 0
  %15 = extractvalue { i64, ptr } %13, 0
  store i64 %15, ptr %14, align 8
  %16 = getelementptr inbounds nuw { i64, ptr }, ptr %6, i32 0, i32 1
  %17 = extractvalue { i64, ptr } %13, 1
  store ptr %17, ptr %16, align 8
  %18 = getelementptr inbounds nuw { i64, ptr }, ptr %6, i32 0, i32 0
  %19 = load i64, ptr %18, align 8
  %20 = getelementptr inbounds nuw { i64, ptr }, ptr %6, i32 0, i32 1
  %21 = load ptr, ptr %20, align 8
  %22 = call { i64, ptr } @jv_invalid_with_msg(i64 %19, ptr %21)
  %23 = getelementptr inbounds nuw { i64, ptr }, ptr %2, i32 0, i32 0
  %24 = extractvalue { i64, ptr } %22, 0
  store i64 %24, ptr %23, align 8
  %25 = getelementptr inbounds nuw { i64, ptr }, ptr %2, i32 0, i32 1
  %26 = extractvalue { i64, ptr } %22, 1
  store ptr %26, ptr %25, align 8
  store i32 1, ptr %7, align 4
  br label %38

27:                                               ; preds = %1
  call void @llvm.lifetime.start.p0(i64 8, ptr %8) #8
  %28 = load ptr, ptr %5, align 8, !tbaa !15
  store ptr %28, ptr %8, align 8, !tbaa !20
  %29 = load ptr, ptr %8, align 8, !tbaa !20
  %30 = getelementptr inbounds nuw %struct.jq_util_input_state, ptr %29, i32 0, i32 12
  %31 = load i64, ptr %30, align 8, !tbaa !41
  %32 = uitofp i64 %31 to double
  %33 = call { i64, ptr } @jv_number(double noundef %32)
  %34 = getelementptr inbounds nuw { i64, ptr }, ptr %2, i32 0, i32 0
  %35 = extractvalue { i64, ptr } %33, 0
  store i64 %35, ptr %34, align 8
  %36 = getelementptr inbounds nuw { i64, ptr }, ptr %2, i32 0, i32 1
  %37 = extractvalue { i64, ptr } %33, 1
  store ptr %37, ptr %36, align 8
  store i32 1, ptr %7, align 4
  call void @llvm.lifetime.end.p0(i64 8, ptr %8) #8
  br label %38

38:                                               ; preds = %27, %12
  call void @llvm.lifetime.end.p0(i64 8, ptr %5) #8
  call void @llvm.lifetime.end.p0(i64 8, ptr %4) #8
  %39 = load { i64, ptr }, ptr %2, align 8
  ret { i64, ptr } %39
}